(dp1
S'output'
p2
S"<type 'exceptions.NameError'> name 'ask_what_make_happy' is not defined"
p3
sS'layer'
p4
S'/Users/mac/Documents/learnEnglish/applications/welcome/controllers/default.py'
p5
sS'code'
p6
S'# -*- coding: utf-8 -*-\n# this file is released under public domain and you can use without limitations\n\n#########################################################################\n## This is a sample controller\n## - index is the default action of any application\n## - user is required for authentication and authorization\n## - download is for downloading files uploaded in the db (does streaming)\n## - call exposes all registered services (none by default)\n#########################################################################\n\nfrom topic_handler import *\nfrom ai_brain import *\n\n\ndef index():\n    """\n    example action using the internationalization operator T and flash\n    rendered by views/default/index.html or views/generic.html\n\n    if you need a simple wiki simply replace the two lines below with:\n    return auth.wiki()\n    """\n    response.flash = T("Welcome to web2py!")\n    redirect(URL(\'talk\'))\n    return dict(message=T(\'Hello World\'))\n\n\ndef user():\n    """\n    exposes:\n    http://..../[app]/default/user/login\n    http://..../[app]/default/user/logout\n    http://..../[app]/default/user/register\n    http://..../[app]/default/user/profile\n    http://..../[app]/default/user/retrieve_password\n    http://..../[app]/default/user/change_password\n    http://..../[app]/default/user/manage_users (requires membership in\n    use @auth.requires_login()\n        @auth.requires_membership(\'group name\')\n        @auth.requires_permission(\'read\',\'table name\',record_id)\n    to decorate functions that need access control\n    """\n    return dict(form=auth())\n\n\n\ndef talk():\n    print\'start\'\n    #initialize session storage info\n\n    return dict()\n\ndef test_STT():\n    return dict()\n\n\n\n\n\n\ndef handle_user_saying_json():\n    """\n\n    """\n    memory_handler.intialize_db_for_memory()\n\n    import json\n    data = request.vars.keys()[0]\n    json_data = json.loads(data)\n    msg = handle_topic_data(json_data)\n    return msg\n\n\ndef handle_topic_data(json_data):\n    """\n    - check if user start new topic\n    - check if user still talk about same topic\n    """\n    intent = json_data[\'outcomes\'][0][\'intent\']\n    """\n    if session.expected_saying == intent:\n        #get last topic handler\n        #handle old topic\n        msg = handle_intent(session.topic_list[-1], json_data)\n        pass\n    else:\n        #new topic\n        clear_session_info()\n        msg = handle_intent(intent, json_data)\n    """\n    msg = handle_intent(intent, json_data)\n\n    return msg\n\nhandler_dic = {LIKE_SMTH: like_smth_handler,\n               GREETING: greeting_handler,\n               OFFER_HELP: receive_offer_help_handler,\n               TIME_INFO: time_info_handler,\n               INTRODUCE_MYSELF:introduce_myself_handler,\n               ASK_DURATION: ask_duration_handler,\n               ASK_CONTACT_INFO: ask_contact_info_handler,\n               ASK_WHAT_ARE_U_DOING: ask_what_are_u_doing_handler,\n               ASK_HOBBY: ask_hobby_handler,\n               ASK_DISTANCE: ask_distance_handler,\n               ASK_WHY_LIKE: ask_why_like_handler,\n               ASK_HOW_TO_DO: ask_how_to_do_handler,\n               EMOTIONAL_EXPRESSION: emotional_expression,\n               #assistant\n               ASK_WHAT_SHOULD_I_DO: ask_advice,\n               ASK_WHAT_MAKE_HAPPY: ask_what_make_happy\n\n               }\n\ndef handle_intent(intent, json_data):\n    """\n    handle ajax call from user\n    need a better algorithm for handle too many case\n    Exp: When talk about smth...only some intent are epxected . So it will requires less computing power\n    """\n    intent = ai_json(json_data).get_intent(0)\n    if session.scenario_flag == True:\n        """\n        correct AI information should be initialized here\n        """\n        human_object = human_obj(\'ai\')\n\n    #in case there\'s expected intent\n    if memory_handler().get_expected_intent():\n        if intent in memory_handler().get_expected_intent():\n            msg = brain().think_with_expected( json_data)\n            return msg\n        else:\n            msg = \'im expecting you to say about %s \'% (memory_handler().get_expected_intent())\n            return msg\n    else:\n        for topic in memory_handler().get_topic_list():\n            if intent in topic_intent_dic[topic][\'intent\']:\n                msg = brain().think(topic, json_data)\n                return msg\n\n\n    # normal case\n    try:\n        handler = handler_dic[intent]\n        msg = handler(json_data).return_msg()\n        return msg\n    except:\n        print\'not implement this intent yet\'\n        pass\n\n    if intent == TO_GO_SOMEWHERE:\n        msg = handler_go_to_some_where(json_data)\n    elif intent == ASK_AGE:\n        msg = handler_talk_about_user(json_data)\n    elif intent == ASK_NAME:\n        msg = handler_talk_about_user(json_data)\n    elif intent == ASK_JOB:\n        msg = handler_talk_about_user(json_data)\n    elif intent == ASK_OPINION_ABOUT_SOMETHING:\n        #msg = handler_talk_about_user(json_data)\n        msg = ask_opinion_about_sth(json_data).return_msg()\n    elif intent == ASK_WHAT_TO_DO:\n        msg = \'no idea\'\n    elif intent ==  DONT_NO:\n        msg = \'thanks\'\n\n\n\n    #personal assistant\n    elif intent == ASK_WHY:\n        msg = \'youre productive and creative at the airport\'\n\n    else:\n        msg = get_answer(json_data[\'outcomes\'][0][\'intent\'])\n\n\n    #session.topic_list.append(intent)\n    return msg\n\ndef handle_user_saying():\n    return get_answer(request.vars.info)\n\n\n\ndef get_answer(intention):\n    if \'ask_name\' in intention:\n        return \'im Huy\'\n    elif \'ask_relationship\' in intention:\n        return \'im not. But i have a girl friend now\'\n    elif \'ask_if_someone_have_a_meal\' in  intention:\n        return \'im looking forward to my delicious dinner\'\n    elif \'ask_when_have_a_meal\' in intention:\n        return \'i cant remember\'\n    elif \'ask_job\' in intention:\n        return " i\'m a software engineer"\n    elif \'ask_company\' in intention:\n        return "im working for vkx company"\n\n    return \'Sorry, currently i could talk about my job, my age only\'\n@cache.action()\ndef download():\n    """\n    allows downloading of uploaded files\n    http://..../[app]/default/download/[filename]\n    """\n    return response.download(request, db)\n\n\n\n\n\n\n\n\ndef clear_session_info():\n    session.time_to_go = None\n    session.by_what = None\n    session.expected_saying = None\n\ndef handler_go_to_some_where(json_data):\n    intent = json_data[\'outcomes\'][0][\'intent\']\n    entity = json_data[\'outcomes\'][0][\'entities\']\n    value =\'\'\n    if intent != TO_GO_SOMEWHERE:\n        # different intent in topic go_to_somewhere\n        handler = go_to_place(session.place)\n    else:\n        # new request about place\n        place = entity[\'target_place\'][0][\'value\']\n        handler = go_to_place(place)\n    question = handler.handle_user_saying(intent,entity)\n    return question\n\ndef handler_talk_about_user( json_data):\n    intent = json_data[\'outcomes\'][0][\'intent\']\n    handler = talk_about_people(\'huy\')\n    msg = handler.handler_user_saying(intent)\n\n    return msg\n\n\ndef ask_and_get_answer(question):\n    if question ==\'ask about time\':\n        return \'3AM\'\n    elif question ==\'ask method to go\':\n        return \'bike\'\n\ndef handler_user_answer(answer):\n    if answer ==\'3AM\':\n        intention =\'time\'\n        value =\'3AM\'\n        handler = go_to_place(\'\')\n        handler.handle_user_saying(intention,value)\n    elif answer ==\'bike\':\n        intention = \'vehicle\'\n        value = \'bike\'\n        handler = go_to_place(\'\')\n        handler.handle_user_saying(intention,value)\n\n\ndef call():\n    """\n    exposes services. for example:\n    http://..../[app]/default/call/jsonrpc\n    decorate with @services.jsonrpc the functions to expose\n    supports xml, json, xmlrpc, jsonrpc, amfrpc, rss, csv\n    """\n    return service()\n\n\n@auth.requires_signature()\ndef data():\n    """\n    http://..../[app]/default/data/tables\n    http://..../[app]/default/data/create/[table]\n    http://..../[app]/default/data/read/[table]/[id]\n    http://..../[app]/default/data/update/[table]/[id]\n    http://..../[app]/default/data/delete/[table]/[id]\n    http://..../[app]/default/data/select/[table]\n    http://..../[app]/default/data/search/[table]\n    but URLs must be signed, i.e. linked with\n      A(\'table\',_href=URL(\'data/tables\',user_signature=True))\n    or with the signed load operator\n      LOAD(\'default\',\'data.load\',args=\'tables\',ajax=True,user_signature=True)\n    """\n    return dict(form=crud())\n\nresponse._vars=response._caller(index)\n'
p7
sS'snapshot'
p8
(dp9
S'exception'
p10
(dp11
S'__hash__'
p12
S"<method-wrapper '__hash__' of exceptions.NameError object>"
p13
sS'__setattr__'
p14
S"<method-wrapper '__setattr__' of exceptions.NameError object>"
p15
sS'__reduce_ex__'
p16
S'<built-in method __reduce_ex__ of exceptions.NameError object>'
p17
sS'__getslice__'
p18
S"<method-wrapper '__getslice__' of exceptions.NameError object>"
p19
sS'__getitem__'
p20
S"<method-wrapper '__getitem__' of exceptions.NameError object>"
p21
sS'__setstate__'
p22
S'<built-in method __setstate__ of exceptions.NameError object>'
p23
sS'args'
p24
S'("name \'ask_what_make_happy\' is not defined",)'
p25
sS'__reduce__'
p26
S'<built-in method __reduce__ of exceptions.NameError object>'
p27
sS'__str__'
p28
S"<method-wrapper '__str__' of exceptions.NameError object>"
p29
sS'__format__'
p30
S'<built-in method __format__ of exceptions.NameError object>'
p31
sS'__getattribute__'
p32
S"<method-wrapper '__getattribute__' of exceptions.NameError object>"
p33
sS'__class__'
p34
S"<type 'exceptions.NameError'>"
p35
sS'__unicode__'
p36
S'<built-in method __unicode__ of exceptions.NameError object>'
p37
sS'__delattr__'
p38
S"<method-wrapper '__delattr__' of exceptions.NameError object>"
p39
sS'__subclasshook__'
p40
S'<built-in method __subclasshook__ of type object>'
p41
sS'__repr__'
p42
S"<method-wrapper '__repr__' of exceptions.NameError object>"
p43
sS'__dict__'
p44
S'{}'
p45
sS'__sizeof__'
p46
S'<built-in method __sizeof__ of exceptions.NameError object>'
p47
sS'__doc__'
p48
S"'Name not found globally.'"
p49
sS'__init__'
p50
S"<method-wrapper '__init__' of exceptions.NameError object>"
p51
sS'__new__'
p52
S'<built-in method __new__ of type object>'
p53
ssS'evalue'
p54
S"name 'ask_what_make_happy' is not defined"
p55
sS'request'
p56
cgluon.html
XML_unpickle
p57
(S's\x1fO\x00\x00<div><table><tr><td style="font-weight:bold;vertical-align:top;">ajax</td><td style="vertical-align:top;">:</td><td><div>False</div></td></tr><tr><td style="font-weight:bold;vertical-align:top;">application</td><td style="vertical-align:top;">:</td><td><div>welcome</div></td></tr><tr><td style="font-weight:bold;vertical-align:top;">args</td><td style="vertical-align:top;">:</td><td><div><table></table></div></td></tr><tr><td style="font-weight:bold;vertical-align:top;">cid</td><td style="vertical-align:top;">:</td><td><div>None</div></td></tr><tr><td style="font-weight:bold;vertical-align:top;">client</td><td style="vertical-align:top;">:</td><td><div>127.0.0.1</div></td></tr><tr><td style="font-weight:bold;vertical-align:top;">controller</td><td style="vertical-align:top;">:</td><td><div>default</div></td></tr><tr><td style="font-weight:bold;vertical-align:top;">cookies</td><td style="vertical-align:top;">:</td><td><div><table><tr><td style="font-weight:bold;vertical-align:top;">session_id_welcome</td><td style="vertical-align:top;">:</td><td><div>127.0.0.1-90f8f148-ffef-4f25-a35b-de8edb25a615<table><tr><td style="font-weight:bold;vertical-align:top;">comment</td><td style="vertical-align:top;">:</td><td><div></div></td></tr><tr><td style="font-weight:bold;vertical-align:top;">domain</td><td style="vertical-align:top;">:</td><td><div></div></td></tr><tr><td style="font-weight:bold;vertical-align:top;">expires</td><td style="vertical-align:top;">:</td><td><div></div></td></tr><tr><td style="font-weight:bold;vertical-align:top;">httponly</td><td style="vertical-align:top;">:</td><td><div></div></td></tr><tr><td style="font-weight:bold;vertical-align:top;">max-age</td><td style="vertical-align:top;">:</td><td><div></div></td></tr><tr><td style="font-weight:bold;vertical-align:top;">path</td><td style="vertical-align:top;">:</td><td><div></div></td></tr><tr><td style="font-weight:bold;vertical-align:top;">secure</td><td style="vertical-align:top;">:</td><td><div></div></td></tr><tr><td style="font-weight:bold;vertical-align:top;">version</td><td style="vertical-align:top;">:</td><td><div></div></td></tr></table></div></td></tr></table></div></td></tr><tr><td style="font-weight:bold;vertical-align:top;">env</td><td style="vertical-align:top;">:</td><td><div><table><tr><td style="font-weight:bold;vertical-align:top;">HTTP_ACCEPT</td><td style="vertical-align:top;">:</td><td><div>text/html,application/xhtml+xml,application/xml;q=0.9,image/webp,*/*;q=0.8</div></td></tr><tr><td style="font-weight:bold;vertical-align:top;">HTTP_ACCEPT_ENCODING</td><td style="vertical-align:top;">:</td><td><div>gzip, deflate, sdch</div></td></tr><tr><td style="font-weight:bold;vertical-align:top;">HTTP_ACCEPT_LANGUAGE</td><td style="vertical-align:top;">:</td><td><div>en-US,en;q=0.8,vi;q=0.6,ko;q=0.4</div></td></tr><tr><td style="font-weight:bold;vertical-align:top;">HTTP_CACHE_CONTROL</td><td style="vertical-align:top;">:</td><td><div>max-age=0</div></td></tr><tr><td style="font-weight:bold;vertical-align:top;">HTTP_CONNECTION</td><td style="vertical-align:top;">:</td><td><div>keep-alive</div></td></tr><tr><td style="font-weight:bold;vertical-align:top;">HTTP_COOKIE</td><td style="vertical-align:top;">:</td><td><div>session_id_welcome=127.0.0.1-90f8f148-ffef-4f25-a35b-de8edb25a615</div></td></tr><tr><td style="font-weight:bold;vertical-align:top;">HTTP_HOST</td><td style="vertical-align:top;">:</td><td><div>localhost:8000</div></td></tr><tr><td style="font-weight:bold;vertical-align:top;">HTTP_USER_AGENT</td><td style="vertical-align:top;">:</td><td><div>Mozilla/5.0 (Macintosh; Intel Mac OS X 10_9_5) AppleWebKit/537.36 (KHTML, like Gecko) Chrome/40.0.2214.94 Safari/537.36</div></td></tr><tr><td style="font-weight:bold;vertical-align:top;">PATH_INFO</td><td style="vertical-align:top;">:</td><td><div>/</div></td></tr><tr><td style="font-weight:bold;vertical-align:top;">QUERY_STRING</td><td style="vertical-align:top;">:</td><td><div></div></td></tr><tr><td style="font-weight:bold;vertical-align:top;">REMOTE_ADDR</td><td style="vertical-align:top;">:</td><td><div>127.0.0.1</div></td></tr><tr><td style="font-weight:bold;vertical-align:top;">REMOTE_PORT</td><td style="vertical-align:top;">:</td><td><div>52868</div></td></tr><tr><td style="font-weight:bold;vertical-align:top;">REQUEST_METHOD</td><td style="vertical-align:top;">:</td><td><div>GET</div></td></tr><tr><td style="font-weight:bold;vertical-align:top;">SCRIPT_NAME</td><td style="vertical-align:top;">:</td><td><div></div></td></tr><tr><td style="font-weight:bold;vertical-align:top;">SERVER_NAME</td><td style="vertical-align:top;">:</td><td><div>MACs-MacBook-Pro-2.local</div></td></tr><tr><td style="font-weight:bold;vertical-align:top;">SERVER_PORT</td><td style="vertical-align:top;">:</td><td><div>8000</div></td></tr><tr><td style="font-weight:bold;vertical-align:top;">SERVER_PROTOCOL</td><td style="vertical-align:top;">:</td><td><div>HTTP/1.1</div></td></tr><tr><td style="font-weight:bold;vertical-align:top;">SERVER_SOFTWARE</td><td style="vertical-align:top;">:</td><td><div>Rocket 1.2.6</div></td></tr><tr><td style="font-weight:bold;vertical-align:top;">app_folders</td><td style="vertical-align:top;">:</td><td><div>set([&#x27;/Users/mac/Documents/learnEnglish/applications/welcome/&#x27;])</div></td></tr><tr><td style="font-weight:bold;vertical-align:top;">applications_parent</td><td style="vertical-align:top;">:</td><td><div>/Users/mac/Documents/learnEnglish</div></td></tr><tr><td style="font-weight:bold;vertical-align:top;">cmd_args</td><td style="vertical-align:top;">:</td><td><div><table></table></div></td></tr><tr><td style="font-weight:bold;vertical-align:top;">cmd_options</td><td style="vertical-align:top;">:</td><td><div>&lt;Values at 0x10ae13128: {&#x27;verbose&#x27;: False, &#x27;ip&#x27;: &#x27;127.0.0.1&#x27;, &#x27;debuglevel&#x27;: 30, &#x27;with_scheduler&#x27;: False, &#x27;ips&#x27;: [&#x27;fe80::6aa8:6dff:fe31:fc9c%en1&#x27;, &#x27;172.16.1.66&#x27;], &#x27;shutdown_timeout&#x27;: 5, &#x27;taskbar&#x27;: False, &#x27;with_coverage&#x27;: False, &#x27;port&#x27;: 8000, &#x27;maxthreads&#x27;: None, &#x27;softcron&#x27;: False, &#x27;server_name&#x27;: &#x27;MACs-MacBook-Pro-2.local&#x27;, &#x27;bpython&#x27;: False, &#x27;nogui&#x27;: False, &#x27;pid_filename&#x27;: &#x27;httpserver.pid&#x27;, &#x27;extcron&#x27;: False, &#x27;runcron&#x27;: False, &#x27;run_system_tests&#x27;: False, &#x27;test&#x27;: None, &#x27;folder&#x27;: &#x27;/Users/mac/Documents/learnEnglish&#x27;, &#x27;config&#x27;: &#x27;&#x27;, &#x27;minthreads&#x27;: None, &#x27;shell&#x27;: None, &#x27;run&#x27;: &#x27;&#x27;, &#x27;log_filename&#x27;: &#x27;httpserver.log&#x27;, &#x27;profiler_dir&#x27;: None, &#x27;args&#x27;: [&#x27;&#x27;], &#x27;socket_timeout&#x27;: 5, &#x27;ssl_ca_certificate&#x27;: None, &#x27;scheduler&#x27;: None, &#x27;interfaces&#x27;: None, &#x27;ssl_private_key&#x27;: &#x27;&#x27;, &#x27;scheduler_groups&#x27;: None, &#x27;password&#x27;: &#x27;&#x27;, &#x27;request_queue_size&#x27;: 5, &#x27;ssl_certificate&#x27;: &#x27;&#x27;, &#x27;cronjob&#x27;: False, &#x27;numthreads&#x27;: None, &#x27;quiet&#x27;: False, &#x27;import_models&#x27;: False, &#x27;timeout&#x27;: 10, &#x27;plain&#x27;: False, &#x27;nobanner&#x27;: False}&gt;</div></td></tr><tr><td style="font-weight:bold;vertical-align:top;">db_sessions</td><td style="vertical-align:top;">:</td><td><div>set([])</div></td></tr><tr><td style="font-weight:bold;vertical-align:top;">debugging</td><td style="vertical-align:top;">:</td><td><div>False</div></td></tr><tr><td style="font-weight:bold;vertical-align:top;">gluon_parent</td><td style="vertical-align:top;">:</td><td><div>/Users/mac/Documents/learnEnglish</div></td></tr><tr><td style="font-weight:bold;vertical-align:top;">http_accept</td><td style="vertical-align:top;">:</td><td><div>text/html,application/xhtml+xml,application/xml;q=0.9,image/webp,*/*;q=0.8</div></td></tr><tr><td style="font-weight:bold;vertical-align:top;">http_accept_encoding</td><td style="vertical-align:top;">:</td><td><div>gzip, deflate, sdch</div></td></tr><tr><td style="font-weight:bold;vertical-align:top;">http_accept_language</td><td style="vertical-align:top;">:</td><td><div>en-US,en;q=0.8,vi;q=0.6,ko;q=0.4</div></td></tr><tr><td style="font-weight:bold;vertical-align:top;">http_cache_control</td><td style="vertical-align:top;">:</td><td><div>max-age=0</div></td></tr><tr><td style="font-weight:bold;vertical-align:top;">http_connection</td><td style="vertical-align:top;">:</td><td><div>keep-alive</div></td></tr><tr><td style="font-weight:bold;vertical-align:top;">http_cookie</td><td style="vertical-align:top;">:</td><td><div>session_id_welcome=127.0.0.1-90f8f148-ffef-4f25-a35b-de8edb25a615</div></td></tr><tr><td style="font-weight:bold;vertical-align:top;">http_host</td><td style="vertical-align:top;">:</td><td><div>localhost:8000</div></td></tr><tr><td style="font-weight:bold;vertical-align:top;">http_user_agent</td><td style="vertical-align:top;">:</td><td><div>Mozilla/5.0 (Macintosh; Intel Mac OS X 10_9_5) AppleWebKit/537.36 (KHTML, like Gecko) Chrome/40.0.2214.94 Safari/537.36</div></td></tr><tr><td style="font-weight:bold;vertical-align:top;">is_jython</td><td style="vertical-align:top;">:</td><td><div>False</div></td></tr><tr><td style="font-weight:bold;vertical-align:top;">is_pypy</td><td style="vertical-align:top;">:</td><td><div>False</div></td></tr><tr><td style="font-weight:bold;vertical-align:top;">is_source</td><td style="vertical-align:top;">:</td><td><div>True</div></td></tr><tr><td style="font-weight:bold;vertical-align:top;">local_hosts</td><td style="vertical-align:top;">:</td><td><div><table><tr><td><div>fe80::6aa8:6dff:fe31:fc9c%en1</div></td></tr><tr><td><div>::ffff:127.0.0.1</div></td></tr><tr><td><div>::1</div></td></tr><tr><td><div>MACs-MacBook-Pro-2.local</div></td></tr><tr><td><div>172.16.1.66</div></td></tr><tr><td><div>127.0.0.1</div></td></tr></table></div></td></tr><tr><td style="font-weight:bold;vertical-align:top;">path_info</td><td style="vertical-align:top;">:</td><td><div>/</div></td></tr><tr><td style="font-weight:bold;vertical-align:top;">query_string</td><td style="vertical-align:top;">:</td><td><div></div></td></tr><tr><td style="font-weight:bold;vertical-align:top;">remote_addr</td><td style="vertical-align:top;">:</td><td><div>127.0.0.1</div></td></tr><tr><td style="font-weight:bold;vertical-align:top;">remote_port</td><td style="vertical-align:top;">:</td><td><div>52868</div></td></tr><tr><td style="font-weight:bold;vertical-align:top;">request_method</td><td style="vertical-align:top;">:</td><td><div>GET</div></td></tr><tr><td style="font-weight:bold;vertical-align:top;">request_uri</td><td style="vertical-align:top;">:</td><td><div>/welcome/default/index</div></td></tr><tr><td style="font-weight:bold;vertical-align:top;">script_name</td><td style="vertical-align:top;">:</td><td><div></div></td></tr><tr><td style="font-weight:bold;vertical-align:top;">server_name</td><td style="vertical-align:top;">:</td><td><div>MACs-MacBook-Pro-2.local</div></td></tr><tr><td style="font-weight:bold;vertical-align:top;">server_port</td><td style="vertical-align:top;">:</td><td><div>8000</div></td></tr><tr><td style="font-weight:bold;vertical-align:top;">server_protocol</td><td style="vertical-align:top;">:</td><td><div>HTTP/1.1</div></td></tr><tr><td style="font-weight:bold;vertical-align:top;">server_software</td><td style="vertical-align:top;">:</td><td><div>Rocket 1.2.6</div></td></tr><tr><td style="font-weight:bold;vertical-align:top;">web2py_original_uri</td><td style="vertical-align:top;">:</td><td><div>/</div></td></tr><tr><td style="font-weight:bold;vertical-align:top;">web2py_path</td><td style="vertical-align:top;">:</td><td><div>/Users/mac/Documents/learnEnglish</div></td></tr><tr><td style="font-weight:bold;vertical-align:top;">web2py_version</td><td style="vertical-align:top;">:</td><td><div>2.8.2-stable+timestamp.2013.11.28.13.54.07</div></td></tr><tr><td style="font-weight:bold;vertical-align:top;">wsgi.errors</td><td style="vertical-align:top;">:</td><td><div>&lt;open file &#x27;&lt;stderr&gt;&#x27;, mode &#x27;w&#x27; at 0x108f901e0&gt;</div></td></tr><tr><td style="font-weight:bold;vertical-align:top;">wsgi.file_wrapper</td><td style="vertical-align:top;">:</td><td><div>&lt;class wsgiref.util.FileWrapper at 0x109b6f3f8&gt;</div></td></tr><tr><td style="font-weight:bold;vertical-align:top;">wsgi.input</td><td style="vertical-align:top;">:</td><td><div>&lt;socket._fileobject object at 0x10dffa950&gt;</div></td></tr><tr><td style="font-weight:bold;vertical-align:top;">wsgi.multiprocess</td><td style="vertical-align:top;">:</td><td><div>False</div></td></tr><tr><td style="font-weight:bold;vertical-align:top;">wsgi.multithread</td><td style="vertical-align:top;">:</td><td><div>True</div></td></tr><tr><td style="font-weight:bold;vertical-align:top;">wsgi.run_once</td><td style="vertical-align:top;">:</td><td><div>False</div></td></tr><tr><td style="font-weight:bold;vertical-align:top;">wsgi.url_scheme</td><td style="vertical-align:top;">:</td><td><div>http</div></td></tr><tr><td style="font-weight:bold;vertical-align:top;">wsgi.version</td><td style="vertical-align:top;">:</td><td><div><table><tr><td><div>1</div></td></tr><tr><td><div>0</div></td></tr></table></div></td></tr><tr><td style="font-weight:bold;vertical-align:top;">wsgi_errors</td><td style="vertical-align:top;">:</td><td><div>&lt;open file &#x27;&lt;stderr&gt;&#x27;, mode &#x27;w&#x27; at 0x108f901e0&gt;</div></td></tr><tr><td style="font-weight:bold;vertical-align:top;">wsgi_file_wrapper</td><td style="vertical-align:top;">:</td><td><div>&lt;class wsgiref.util.FileWrapper at 0x109b6f3f8&gt;</div></td></tr><tr><td style="font-weight:bold;vertical-align:top;">wsgi_input</td><td style="vertical-align:top;">:</td><td><div>&lt;socket._fileobject object at 0x10dffa950&gt;</div></td></tr><tr><td style="font-weight:bold;vertical-align:top;">wsgi_multiprocess</td><td style="vertical-align:top;">:</td><td><div>False</div></td></tr><tr><td style="font-weight:bold;vertical-align:top;">wsgi_multithread</td><td style="vertical-align:top;">:</td><td><div>True</div></td></tr><tr><td style="font-weight:bold;vertical-align:top;">wsgi_run_once</td><td style="vertical-align:top;">:</td><td><div>False</div></td></tr><tr><td style="font-weight:bold;vertical-align:top;">wsgi_url_scheme</td><td style="vertical-align:top;">:</td><td><div>http</div></td></tr><tr><td style="font-weight:bold;vertical-align:top;">wsgi_version</td><td style="vertical-align:top;">:</td><td><div><table><tr><td><div>1</div></td></tr><tr><td><div>0</div></td></tr></table></div></td></tr></table></div></td></tr><tr><td style="font-weight:bold;vertical-align:top;">extension</td><td style="vertical-align:top;">:</td><td><div>html</div></td></tr><tr><td style="font-weight:bold;vertical-align:top;">folder</td><td style="vertical-align:top;">:</td><td><div>/Users/mac/Documents/learnEnglish/applications/welcome/</div></td></tr><tr><td style="font-weight:bold;vertical-align:top;">function</td><td style="vertical-align:top;">:</td><td><div>index</div></td></tr><tr><td style="font-weight:bold;vertical-align:top;">global_settings</td><td style="vertical-align:top;">:</td><td><div><table><tr><td style="font-weight:bold;vertical-align:top;">app_folders</td><td style="vertical-align:top;">:</td><td><div>set([&#x27;/Users/mac/Documents/learnEnglish/applications/welcome/&#x27;])</div></td></tr><tr><td style="font-weight:bold;vertical-align:top;">applications_parent</td><td style="vertical-align:top;">:</td><td><div>/Users/mac/Documents/learnEnglish</div></td></tr><tr><td style="font-weight:bold;vertical-align:top;">cmd_args</td><td style="vertical-align:top;">:</td><td><div><table></table></div></td></tr><tr><td style="font-weight:bold;vertical-align:top;">cmd_options</td><td style="vertical-align:top;">:</td><td><div>&lt;Values at 0x10ae13128: {&#x27;verbose&#x27;: False, &#x27;ip&#x27;: &#x27;127.0.0.1&#x27;, &#x27;debuglevel&#x27;: 30, &#x27;with_scheduler&#x27;: False, &#x27;ips&#x27;: [&#x27;fe80::6aa8:6dff:fe31:fc9c%en1&#x27;, &#x27;172.16.1.66&#x27;], &#x27;shutdown_timeout&#x27;: 5, &#x27;taskbar&#x27;: False, &#x27;with_coverage&#x27;: False, &#x27;port&#x27;: 8000, &#x27;maxthreads&#x27;: None, &#x27;softcron&#x27;: False, &#x27;server_name&#x27;: &#x27;MACs-MacBook-Pro-2.local&#x27;, &#x27;bpython&#x27;: False, &#x27;nogui&#x27;: False, &#x27;pid_filename&#x27;: &#x27;httpserver.pid&#x27;, &#x27;extcron&#x27;: False, &#x27;runcron&#x27;: False, &#x27;run_system_tests&#x27;: False, &#x27;test&#x27;: None, &#x27;folder&#x27;: &#x27;/Users/mac/Documents/learnEnglish&#x27;, &#x27;config&#x27;: &#x27;&#x27;, &#x27;minthreads&#x27;: None, &#x27;shell&#x27;: None, &#x27;run&#x27;: &#x27;&#x27;, &#x27;log_filename&#x27;: &#x27;httpserver.log&#x27;, &#x27;profiler_dir&#x27;: None, &#x27;args&#x27;: [&#x27;&#x27;], &#x27;socket_timeout&#x27;: 5, &#x27;ssl_ca_certificate&#x27;: None, &#x27;scheduler&#x27;: None, &#x27;interfaces&#x27;: None, &#x27;ssl_private_key&#x27;: &#x27;&#x27;, &#x27;scheduler_groups&#x27;: None, &#x27;password&#x27;: &#x27;&#x27;, &#x27;request_queue_size&#x27;: 5, &#x27;ssl_certificate&#x27;: &#x27;&#x27;, &#x27;cronjob&#x27;: False, &#x27;numthreads&#x27;: None, &#x27;quiet&#x27;: False, &#x27;import_models&#x27;: False, &#x27;timeout&#x27;: 10, &#x27;plain&#x27;: False, &#x27;nobanner&#x27;: False}&gt;</div></td></tr><tr><td style="font-weight:bold;vertical-align:top;">db_sessions</td><td style="vertical-align:top;">:</td><td><div>set([])</div></td></tr><tr><td style="font-weight:bold;vertical-align:top;">debugging</td><td style="vertical-align:top;">:</td><td><div>False</div></td></tr><tr><td style="font-weight:bold;vertical-align:top;">gluon_parent</td><td style="vertical-align:top;">:</td><td><div>/Users/mac/Documents/learnEnglish</div></td></tr><tr><td style="font-weight:bold;vertical-align:top;">is_jython</td><td style="vertical-align:top;">:</td><td><div>False</div></td></tr><tr><td style="font-weight:bold;vertical-align:top;">is_pypy</td><td style="vertical-align:top;">:</td><td><div>False</div></td></tr><tr><td style="font-weight:bold;vertical-align:top;">is_source</td><td style="vertical-align:top;">:</td><td><div>True</div></td></tr><tr><td style="font-weight:bold;vertical-align:top;">local_hosts</td><td style="vertical-align:top;">:</td><td><div><table><tr><td><div>fe80::6aa8:6dff:fe31:fc9c%en1</div></td></tr><tr><td><div>::ffff:127.0.0.1</div></td></tr><tr><td><div>::1</div></td></tr><tr><td><div>MACs-MacBook-Pro-2.local</div></td></tr><tr><td><div>172.16.1.66</div></td></tr><tr><td><div>127.0.0.1</div></td></tr></table></div></td></tr><tr><td style="font-weight:bold;vertical-align:top;">web2py_version</td><td style="vertical-align:top;">:</td><td><div>2.8.2-stable+timestamp.2013.11.28.13.54.07</div></td></tr></table></div></td></tr><tr><td style="font-weight:bold;vertical-align:top;">is_https</td><td style="vertical-align:top;">:</td><td><div>False</div></td></tr><tr><td style="font-weight:bold;vertical-align:top;">is_local</td><td style="vertical-align:top;">:</td><td><div>True</div></td></tr><tr><td style="font-weight:bold;vertical-align:top;">is_restful</td><td style="vertical-align:top;">:</td><td><div>False</div></td></tr><tr><td style="font-weight:bold;vertical-align:top;">now</td><td style="vertical-align:top;">:</td><td><div>datetime.datetime(2015, 2, 2, 16, 47, 8, 924463)</div></td></tr><tr><td style="font-weight:bold;vertical-align:top;">url</td><td style="vertical-align:top;">:</td><td><div>/</div></td></tr><tr><td style="font-weight:bold;vertical-align:top;">utcnow</td><td style="vertical-align:top;">:</td><td><div>datetime.datetime(2015, 2, 2, 9, 47, 8, 924481)</div></td></tr><tr><td style="font-weight:bold;vertical-align:top;">uuid</td><td style="vertical-align:top;">:</td><td><div>welcome/127.0.0.1.2015-02-02.16-47-08.44a105b6-79e4-4e90-8ce3-fff26e0b1549</div></td></tr><tr><td style="font-weight:bold;vertical-align:top;">wsgi</td><td style="vertical-align:top;">:</td><td><div>&lt;gluon.main.LazyWSGI object at 0x10e093490&gt;</div></td></tr></table></div>'
tRp58
sS'frames'
p59
(lp60
(dp61
S'file'
p62
S'/Users/mac/Documents/learnEnglish/gluon/restricted.py'
p63
sS'dump'
p64
(dp65
S'environment'
p66
S"{'A': <class 'gluon.html.A'>, 'ACTIVITY_INFO': 'activity_info', 'ANSWER_FLAG': 'asnwer', 'ANY_OF': <class 'gluon.validators.ANY_OF'>, 'ASK_AGE': 'ask_age', 'ASK_CONTACT_INFO': 'ask_contact_info', 'ASK_DISTANCE': 'ask_distance', 'ASK_DURATION': 'ask_duration_of_doing_smth', 'ASK_FLAG': 'ask', 'ASK_HOBBY': 'ask_hobby', ...}"
p67
sS'ccode'
p68
S'<code object <module> at 0x10e06e9b0, file "/Use...cations/welcome/controllers/default.py", line 12>'
p69
ssS'lnum'
p70
I217
sS'lines'
p71
(dp72
I212
S'    try:'
p73
sI213
S'        if isinstance(code, types.CodeType):'
p74
sI214
S'            ccode = code'
p75
sI215
S'        else:'
p76
sI216
S'            ccode = compile2(code, layer)'
p77
sI217
S'        exec ccode in environment'
p78
sI218
S'    except HTTP:'
p79
sI219
S'        raise'
p80
sI220
S'    except RestrictedError:'
p81
sI221
S'        # do not encapsulate (obfuscate) the original RestrictedError'
p82
ssS'call'
p83
S"(code='# -*- coding: utf-8 -*-\\n# this file is released ...=crud())\\n\\nresponse._vars=response._caller(index)\\n', environment={'A': <class 'gluon.html.A'>, 'ACTIVITY_INFO': 'activity_info', 'ANSWER_FLAG': 'asnwer', 'ANY_OF': <class 'gluon.validators.ANY_OF'>, 'ASK_AGE': 'ask_age', 'ASK_CONTACT_INFO': 'ask_contact_info', 'ASK_DISTANCE': 'ask_distance', 'ASK_DURATION': 'ask_duration_of_doing_smth', 'ASK_FLAG': 'ask', 'ASK_HOBBY': 'ask_hobby', ...}, layer='/Users/mac/Documents/learnEnglish/applications/welcome/controllers/default.py')"
p84
sS'func'
p85
S'restricted'
p86
sa(dp87
g62
S'/Users/mac/Documents/learnEnglish/applications/welcome/controllers/default.py'
p88
sg64
(dp89
S'ASK_WHAT_MAKE_HAPPY'
p90
S"'ask_what_make_happy'"
p91
sS'ask_what_make_happy'
p92
S'undefined'
p93
ssg70
I111
sg71
(dp94
I106
S'               ASK_WHY_LIKE: ask_why_like_handler,'
p95
sI107
S'               ASK_HOW_TO_DO: ask_how_to_do_handler,'
p96
sI108
S'               EMOTIONAL_EXPRESSION: emotional_expression,'
p97
sI109
S'               #assistant'
p98
sI110
S'               ASK_WHAT_SHOULD_I_DO: ask_advice,'
p99
sI111
S'               ASK_WHAT_MAKE_HAPPY: ask_what_make_happy'
p100
sI112
S''
sI113
S'               }'
p101
sI114
S''
sI115
S'def handle_intent(intent, json_data):'
p102
ssg83
S'()'
p103
sg85
S'<module>'
p104
sasS'pyver'
p105
S'Python 2.7.5: /usr/bin/python (prefix: /System/Library/Frameworks/Python.framework/Versions/2.7)'
p106
sS'session'
p107
g57
(S's/\x0b\x00\x00<div><table><tr><td style="font-weight:bold;vertical-align:top;">expected_intent</td><td style="vertical-align:top;">:</td><td><div><table><tr><td style="font-weight:bold;vertical-align:top;">class</td><td style="vertical-align:top;">:</td><td><div>running</div></td></tr><tr><td style="font-weight:bold;vertical-align:top;">intent</td><td style="vertical-align:top;">:</td><td><div><table><tr><td><div>distance_info</div></td></tr><tr><td><div>doing_smth</div></td></tr></table></div></td></tr></table></div></td></tr><tr><td style="font-weight:bold;vertical-align:top;">intent_list</td><td style="vertical-align:top;">:</td><td><div><table><tr><td><div><table><tr><td style="font-weight:bold;vertical-align:top;">msg_id</td><td style="vertical-align:top;">:</td><td><div>579b5659-e31f-46fe-a8c4-e630719b4ddc</div></td></tr><tr><td style="font-weight:bold;vertical-align:top;">outcomes</td><td style="vertical-align:top;">:</td><td><div><table><tr><td><div><table><tr><td style="font-weight:bold;vertical-align:top;">confidence</td><td style="vertical-align:top;">:</td><td><div>0.991</div></td></tr><tr><td style="font-weight:bold;vertical-align:top;">entities</td><td style="vertical-align:top;">:</td><td><div>{u&#x27;contact&#x27;: [{u&#x27;value&#x27;: u&#x27;your&#x27;}]}</div></td></tr><tr><td style="font-weight:bold;vertical-align:top;">intent</td><td style="vertical-align:top;">:</td><td><div>ask_hobby</div></td></tr></table></div></td></tr></table></div></td></tr></table></div></td></tr><tr><td><div><table><tr><td style="font-weight:bold;vertical-align:top;">msg_id</td><td style="vertical-align:top;">:</td><td><div>579b5659-e31f-46fe-a8c4-e630719b4ddc</div></td></tr><tr><td style="font-weight:bold;vertical-align:top;">outcomes</td><td style="vertical-align:top;">:</td><td><div><table><tr><td><div><table><tr><td style="font-weight:bold;vertical-align:top;">confidence</td><td style="vertical-align:top;">:</td><td><div>0.991</div></td></tr><tr><td style="font-weight:bold;vertical-align:top;">entities</td><td style="vertical-align:top;">:</td><td><div>{u&#x27;contact&#x27;: [{u&#x27;value&#x27;: u&#x27;your&#x27;}]}</div></td></tr><tr><td style="font-weight:bold;vertical-align:top;">intent</td><td style="vertical-align:top;">:</td><td><div>ask_hobby</div></td></tr></table></div></td></tr></table></div></td></tr></table></div></td></tr><tr><td><div></div></td></tr></table></div></td></tr><tr><td style="font-weight:bold;vertical-align:top;">topic_list</td><td style="vertical-align:top;">:</td><td><div><table><tr><td><div>running</div></td></tr><tr><td><div>hobby</div></td></tr><tr><td><div>running</div></td></tr></table></div></td></tr><tr><td style="font-weight:bold;vertical-align:top;">user_act</td><td style="vertical-align:top;">:</td><td><div><table><tr><td><div>running</div></td></tr></table></div></td></tr></table></div>'
tRp108
sS'etype'
p109
S"<type 'exceptions.NameError'>"
p110
sS'date'
p111
S'Mon Feb  2 16:47:08 2015'
p112
sS'response'
p113
g57
(S's\xc11\x00\x00<div><table><tr><td style="font-weight:bold;vertical-align:top;">body</td><td style="vertical-align:top;">:</td><td><div>&lt;cStringIO.StringO object at 0x10dfe76f8&gt;</div></td></tr><tr><td style="font-weight:bold;vertical-align:top;">cookies</td><td style="vertical-align:top;">:</td><td><div><table><tr><td style="font-weight:bold;vertical-align:top;">session_id_welcome</td><td style="vertical-align:top;">:</td><td><div>127.0.0.1-90f8f148-ffef-4f25-a35b-de8edb25a615<table><tr><td style="font-weight:bold;vertical-align:top;">comment</td><td style="vertical-align:top;">:</td><td><div></div></td></tr><tr><td style="font-weight:bold;vertical-align:top;">domain</td><td style="vertical-align:top;">:</td><td><div></div></td></tr><tr><td style="font-weight:bold;vertical-align:top;">expires</td><td style="vertical-align:top;">:</td><td><div></div></td></tr><tr><td style="font-weight:bold;vertical-align:top;">httponly</td><td style="vertical-align:top;">:</td><td><div></div></td></tr><tr><td style="font-weight:bold;vertical-align:top;">max-age</td><td style="vertical-align:top;">:</td><td><div></div></td></tr><tr><td style="font-weight:bold;vertical-align:top;">path</td><td style="vertical-align:top;">:</td><td><div>/</div></td></tr><tr><td style="font-weight:bold;vertical-align:top;">secure</td><td style="vertical-align:top;">:</td><td><div></div></td></tr><tr><td style="font-weight:bold;vertical-align:top;">version</td><td style="vertical-align:top;">:</td><td><div></div></td></tr></table></div></td></tr></table></div></td></tr><tr><td style="font-weight:bold;vertical-align:top;">delimiters</td><td style="vertical-align:top;">:</td><td><div><table><tr><td><div>{{</div></td></tr><tr><td><div>}}</div></td></tr></table></div></td></tr><tr><td style="font-weight:bold;vertical-align:top;">files</td><td style="vertical-align:top;">:</td><td><div><table></table></div></td></tr><tr><td style="font-weight:bold;vertical-align:top;">flash</td><td style="vertical-align:top;">:</td><td><div></div></td></tr><tr><td style="font-weight:bold;vertical-align:top;">generic_patterns</td><td style="vertical-align:top;">:</td><td><div><table><tr><td><div>*</div></td></tr></table></div></td></tr><tr><td style="font-weight:bold;vertical-align:top;">google_analytics_id</td><td style="vertical-align:top;">:</td><td><div>None</div></td></tr><tr><td style="font-weight:bold;vertical-align:top;">headers</td><td style="vertical-align:top;">:</td><td><div><table><tr><td style="font-weight:bold;vertical-align:top;">X-Powered-By</td><td style="vertical-align:top;">:</td><td><div>web2py</div></td></tr></table></div></td></tr><tr><td style="font-weight:bold;vertical-align:top;">logo</td><td style="vertical-align:top;">:</td><td><div><a class="brand" data-w2p_disable_with="default" href="http://www.web2py.com/"><b>web<span>2</span>py</b>&trade;&nbsp;</a></div></td></tr><tr><td style="font-weight:bold;vertical-align:top;">menu</td><td style="vertical-align:top;">:</td><td><div><table><tr><td><div><table><tr><td><div>Home</div></td></tr><tr><td><div>False</div></td></tr><tr><td><div>/</div></td></tr><tr><td><div><table></table></div></td></tr></table></div></td></tr><tr><td><div><table><tr><td><div><span class="highlighted">web2py</span></div></td></tr><tr><td><div>False</div></td></tr><tr><td><div>http://web2py.com</div></td></tr><tr><td><div><table><tr><td><div><table><tr><td><div>My Sites</div></td></tr><tr><td><div>False</div></td></tr><tr><td><div>/admin/site</div></td></tr></table></div></td></tr><tr><td><div><table><tr><td><div>This App</div></td></tr><tr><td><div>False</div></td></tr><tr><td><div>/admin/design/welcome</div></td></tr><tr><td><div>[(&lt;lazyT &#x27;Controller&#x27;&gt;, False, &#x27;/admin/edit/welcome/controllers/default.py&#x27;), (&lt;lazyT &#x27;View&#x27;&gt;, False, &#x27;/admin/edit/welcome/views/default/index.html&#x27;), (&lt;lazyT &#x27;Layout&#x27;&gt;, False, &#x27;/admin/edit/welcome/views/layout.html&#x27;), (&lt;lazyT &#x27;Stylesheet&#x27;&gt;, False, &#x27;/admin/edit/welcome/static/css/web2py.css&#x27;), (&lt;lazyT &#x27;DB Model&#x27;&gt;, False, &#x27;/admin/edit/welcome/models/db.py&#x27;), (&lt;lazyT &#x27;Menu Model&#x27;&gt;, False, &#x27;/admin/edit/welcome/models/menu.py&#x27;), (&lt;lazyT &#x27;Database&#x27;&gt;, False, &#x27;/appadmin&#x27;), (&lt;lazyT &#x27;Errors&#x27;&gt;, False, &#x27;/admin/errors/welcome&#x27;), (&lt;lazyT &#x27;About&#x27;&gt;, False, &#x27;/admin/about/welcome&#x27;)]</div></td></tr></table></div></td></tr><tr><td><div><table><tr><td><div>web2py.com</div></td></tr><tr><td><div>False</div></td></tr><tr><td><div>http://www.web2py.com</div></td></tr><tr><td><div>[(&lt;lazyT &#x27;Download&#x27;&gt;, False, &#x27;http://www.web2py.com/examples/default/download&#x27;), (&lt;lazyT &#x27;Support&#x27;&gt;, False, &#x27;http://www.web2py.com/examples/default/support&#x27;), (&lt;lazyT &#x27;Demo&#x27;&gt;, False, &#x27;http://web2py.com/demo_admin&#x27;), (&lt;lazyT &#x27;Quick Examples&#x27;&gt;, False, &#x27;http://web2py.com/examples/default/examples&#x27;), (&lt;lazyT &#x27;FAQ&#x27;&gt;, False, &#x27;http://web2py.com/AlterEgo&#x27;), (&lt;lazyT &#x27;Videos&#x27;&gt;, False, &#x27;http://www.web2py.com/examples/default/videos/&#x27;), (&lt;lazyT &#x27;Free Applications&#x27;&gt;, False, &#x27;http://web2py.com/appliances&#x27;), (&lt;lazyT &#x27;Plugins&#x27;&gt;, False, &#x27;http://web2py.com/plugins&#x27;), (&lt;lazyT &#x27;Layouts&#x27;&gt;, False, &#x27;http://web2py.com/layouts&#x27;), (&lt;lazyT &#x27;Recipes&#x27;&gt;, False, &#x27;http://web2pyslices.com/&#x27;), (&lt;lazyT &#x27;Semantic&#x27;&gt;, False, &#x27;http://web2py.com/semantic&#x27;)]</div></td></tr></table></div></td></tr><tr><td><div><table><tr><td><div>Documentation</div></td></tr><tr><td><div>False</div></td></tr><tr><td><div>http://www.web2py.com/book</div></td></tr><tr><td><div>[(&lt;lazyT &#x27;Preface&#x27;&gt;, False, &#x27;http://www.web2py.com/book/default/chapter/00&#x27;), (&lt;lazyT &#x27;Introduction&#x27;&gt;, False, &#x27;http://www.web2py.com/book/default/chapter/01&#x27;), (&lt;lazyT &#x27;Python&#x27;&gt;, False, &#x27;http://www.web2py.com/book/default/chapter/02&#x27;), (&lt;lazyT &#x27;Overview&#x27;&gt;, False, &#x27;http://www.web2py.com/book/default/chapter/03&#x27;), (&lt;lazyT &#x27;The Core&#x27;&gt;, False, &#x27;http://www.web2py.com/book/default/chapter/04&#x27;), (&lt;lazyT &#x27;The Views&#x27;&gt;, False, &#x27;http://www.web2py.com/book/default/chapter/05&#x27;), (&lt;lazyT &#x27;Database&#x27;&gt;, False, &#x27;http://www.web2py.com/book/default/chapter/06&#x27;), (&lt;lazyT &#x27;Forms and Validators&#x27;&gt;, False, &#x27;http://www.web2py.com/book/default/chapter/07&#x27;), (&lt;lazyT &#x27;Email and SMS&#x27;&gt;, False, &#x27;http://www.web2py.com/book/default/chapter/08&#x27;), (&lt;lazyT &#x27;Access Control&#x27;&gt;, False, &#x27;http://www.web2py.com/book/default/chapter/09&#x27;), (&lt;lazyT &#x27;Services&#x27;&gt;, False, &#x27;http://www.web2py.com/book/default/chapter/10&#x27;), (&lt;lazyT &#x27;Ajax Recipes&#x27;&gt;, False, &#x27;http://www.web2py.com/book/default/chapter/11&#x27;), (&lt;lazyT &#x27;Components and Plugins&#x27;&gt;, False, &#x27;http://www.web2py.com/book/default/chapter/12&#x27;), (&lt;lazyT &#x27;Deployment Recipes&#x27;&gt;, False, &#x27;http://www.web2py.com/book/default/chapter/13&#x27;), (&lt;lazyT &#x27;Other Recipes&#x27;&gt;, False, &#x27;http://www.web2py.com/book/default/chapter/14&#x27;), (&lt;lazyT &#x27;Buy this book&#x27;&gt;, False, &#x27;http://stores.lulu.com/web2py&#x27;)]</div></td></tr></table></div></td></tr><tr><td><div><table><tr><td><div>Community</div></td></tr><tr><td><div>False</div></td></tr><tr><td><div>None</div></td></tr><tr><td><div>[(&lt;lazyT &#x27;Groups&#x27;&gt;, False, &#x27;http://www.web2py.com/examples/default/usergroups&#x27;), (&lt;lazyT &#x27;Twitter&#x27;&gt;, False, &#x27;http://twitter.com/web2py&#x27;), (&lt;lazyT &#x27;Live Chat&#x27;&gt;, False, &#x27;http://webchat.freenode.net/?channels=web2py&#x27;)]</div></td></tr></table></div></td></tr><tr><td><div><table><tr><td><div>Plugins</div></td></tr><tr><td><div>False</div></td></tr><tr><td><div>None</div></td></tr><tr><td><div>[(&#x27;plugin_wiki&#x27;, False, &#x27;http://web2py.com/examples/default/download&#x27;), (&lt;lazyT &#x27;Other Plugins&#x27;&gt;, False, &#x27;http://web2py.com/plugins&#x27;), (&lt;lazyT &#x27;Layout Plugins&#x27;&gt;, False, &#x27;http://web2py.com/layouts&#x27;)]</div></td></tr></table></div></td></tr></table></div></td></tr></table></div></td></tr></table></div></td></tr><tr><td style="font-weight:bold;vertical-align:top;">meta</td><td style="vertical-align:top;">:</td><td><div><table><tr><td style="font-weight:bold;vertical-align:top;">author</td><td style="vertical-align:top;">:</td><td><div>Your Name &lt;you@example.com&gt;</div></td></tr><tr><td style="font-weight:bold;vertical-align:top;">description</td><td style="vertical-align:top;">:</td><td><div>a cool new app</div></td></tr><tr><td style="font-weight:bold;vertical-align:top;">generator</td><td style="vertical-align:top;">:</td><td><div>Web2py Web Framework</div></td></tr><tr><td style="font-weight:bold;vertical-align:top;">keywords</td><td style="vertical-align:top;">:</td><td><div>web2py, python, framework</div></td></tr></table></div></td></tr><tr><td style="font-weight:bold;vertical-align:top;">models_to_run</td><td style="vertical-align:top;">:</td><td><div><table><tr><td><div>^\\w+\\.py$</div></td></tr><tr><td><div>^default/\\w+\\.py$</div></td></tr><tr><td><div>^default/index/\\w+\\.py$</div></td></tr></table></div></td></tr><tr><td style="font-weight:bold;vertical-align:top;">postprocessing</td><td style="vertical-align:top;">:</td><td><div><table></table></div></td></tr><tr><td style="font-weight:bold;vertical-align:top;">session_client</td><td style="vertical-align:top;">:</td><td><div>127.0.0.1</div></td></tr><tr><td style="font-weight:bold;vertical-align:top;">session_cookie_compression_level</td><td style="vertical-align:top;">:</td><td><div>None</div></td></tr><tr><td style="font-weight:bold;vertical-align:top;">session_cookie_expires</td><td style="vertical-align:top;">:</td><td><div>None</div></td></tr><tr><td style="font-weight:bold;vertical-align:top;">session_cookie_key</td><td style="vertical-align:top;">:</td><td><div>None</div></td></tr><tr><td style="font-weight:bold;vertical-align:top;">session_data_name</td><td style="vertical-align:top;">:</td><td><div>session_data_welcome</div></td></tr><tr><td style="font-weight:bold;vertical-align:top;">session_file</td><td style="vertical-align:top;">:</td><td><div>&lt;open file &#x27;/Users/mac/Documents/learnEnglish/applications/welcome/sessions/127.0.0.1-90f8f148-ffef-4f25-a35b-de8edb25a615&#x27;, mode &#x27;rb+&#x27; at 0x10dfdc300&gt;</div></td></tr><tr><td style="font-weight:bold;vertical-align:top;">session_filename</td><td style="vertical-align:top;">:</td><td><div>/Users/mac/Documents/learnEnglish/applications/welcome/sessions/127.0.0.1-90f8f148-ffef-4f25-a35b-de8edb25a615</div></td></tr><tr><td style="font-weight:bold;vertical-align:top;">session_hash</td><td style="vertical-align:top;">:</td><td><div>2109d3f39a03c857e1ece0821e25c31e</div></td></tr><tr><td style="font-weight:bold;vertical-align:top;">session_id</td><td style="vertical-align:top;">:</td><td><div>127.0.0.1-90f8f148-ffef-4f25-a35b-de8edb25a615</div></td></tr><tr><td style="font-weight:bold;vertical-align:top;">session_id_name</td><td style="vertical-align:top;">:</td><td><div>session_id_welcome</div></td></tr><tr><td style="font-weight:bold;vertical-align:top;">session_locked</td><td style="vertical-align:top;">:</td><td><div>True</div></td></tr><tr><td style="font-weight:bold;vertical-align:top;">session_masterapp</td><td style="vertical-align:top;">:</td><td><div>welcome</div></td></tr><tr><td style="font-weight:bold;vertical-align:top;">session_new</td><td style="vertical-align:top;">:</td><td><div>False</div></td></tr><tr><td style="font-weight:bold;vertical-align:top;">session_storage_type</td><td style="vertical-align:top;">:</td><td><div>file</div></td></tr><tr><td style="font-weight:bold;vertical-align:top;">status</td><td style="vertical-align:top;">:</td><td><div>200</div></td></tr><tr><td style="font-weight:bold;vertical-align:top;">subtitle</td><td style="vertical-align:top;">:</td><td><div></div></td></tr><tr><td style="font-weight:bold;vertical-align:top;">title</td><td style="vertical-align:top;">:</td><td><div>Welcome</div></td></tr><tr><td style="font-weight:bold;vertical-align:top;">view</td><td style="vertical-align:top;">:</td><td><div>default/index.html</div></td></tr></table></div>'
tRp114
sS'locals'
p115
(dp116
S'DOING_SMTH'
p117
S"'doing_smth'"
p118
sS'IS_SLUG'
p119
S"<class 'gluon.validators.IS_SLUG'>"
p120
sS'Service'
p121
S"<class 'gluon.tools.Service'>"
p122
sS'OBJECT'
p123
S"<class 'gluon.html.OBJECT'>"
p124
sS'generate_msg_to_say'
p125
S"<class 'applications.welcome.modules.topic_handler.generate_msg_to_say'>"
p126
sS'SQLDB'
p127
S"<class 'gluon.dal.DAL'>"
p128
sS'brain'
p129
S"<class 'applications.welcome.modules.ai_brain.brain'>"
p130
sS'PRACTISE_INFO'
p131
S"'practise_info'"
p132
sS'LINK'
p133
S"<class 'gluon.html.LINK'>"
p134
sS'BR'
p135
S"<class 'gluon.html.BR'>"
p136
sS'local_import'
p137
S'<function <lambda>>'
p138
sS'EMBED'
p139
S"<class 'gluon.html.EMBED'>"
p140
sS'LI'
p141
S"<class 'gluon.html.LI'>"
p142
sS'redirect'
p143
S'<function redirect>'
p144
sS'IS_INT_IN_RANGE'
p145
S"<class 'gluon.validators.IS_INT_IN_RANGE'>"
p146
sS'ASK_FLAG'
p147
S"'ask'"
p148
sS'emotional_expression'
p149
S"<class 'applications.welcome.modules.topic_handler.emotional_expression'>"
p150
sS'IS_LOWER'
p151
S"<class 'gluon.validators.IS_LOWER'>"
p152
sS'IS_STRONG'
p153
S"<class 'gluon.validators.IS_STRONG'>"
p154
sS'cache'
p155
S'<gluon.cache.Cache object>'
p156
sS'IS_IN_DB'
p157
S"<class 'gluon.validators.IS_IN_DB'>"
p158
sS'handle_topic_data'
p159
S'<function handle_topic_data>'
p160
sS'TAG'
p161
S'<gluon.html.__TAG__ object>'
p162
sS'METHOD_TO_GO'
p163
S"'method_to_go'"
p164
sS'SQLField'
p165
S"<class 'gluon.dal.Field'>"
p166
sS'mail'
p167
S'<gluon.tools.Mail object>'
p168
sS'ASK_WHAT_SHOULD_I_DO'
p169
S"'ask_what_should_i_do'"
p170
sS'UL'
p171
S"<class 'gluon.html.UL'>"
p172
sS'WAITING_ACT'
p173
S"'waiting_act'"
p174
sS'BODY'
p175
S"<class 'gluon.html.BODY'>"
p176
sS'IS_DATE_IN_RANGE'
p177
S"<class 'gluon.validators.IS_DATE_IN_RANGE'>"
p178
sS'ASK_DURATION'
p179
S"'ask_duration_of_doing_smth'"
p180
sS'ASK_WHY'
p181
S"'ask_why'"
p182
sS'ASK_OPINION_ABOUT_SOMETHING'
p183
S"'ask_opinion_about_something'"
p184
sS'TH'
p185
S"<class 'gluon.html.TH'>"
p186
sS'ASK_WHAT_ARE_U_DOING'
p187
S"'ask_what_are_u_doing'"
p188
sS'TARGET_NAME'
p189
S"'target_name'"
p190
sS'__file__'
p191
S"'/Users/mac/Documents/learnEnglish/applications/welcome/controllers/default.py'"
p192
sS'IS_NULL_OR'
p193
S"<class 'gluon.validators.IS_EMPTY_OR'>"
p194
sS'db'
p195
S'<DAL uri="sqlite://storage.sqlite">'
p196
sS'auth'
p197
S'<gluon.tools.Auth object>'
p198
sS'DATETIME'
p199
S"'datetime'"
p200
sS'P'
S"<class 'gluon.html.P'>"
p201
sS'IT_SUBJECT'
p202
S"'it'"
p203
sS'T'
S'<gluon.languages.translator object>'
p204
sS'expected_intent_gen'
p205
S"{None: None, 'ask_distance': ['distance_info', 'doing_smth'], 'ask_hobby': 'like_smth', 'ask_time': ['time_info', 'doing_smth']}"
p206
sS'SPAN'
p207
S"<class 'gluon.html.SPAN'>"
p208
sS'XHTML'
p209
S"<class 'gluon.html.XHTML'>"
p210
sS'FEELING'
p211
S"'feeling'"
p212
sS'TD'
p213
S"<class 'gluon.html.TD'>"
p214
sS'ON'
p215
S'True'
p216
sS'OL'
p217
S"<class 'gluon.html.OL'>"
p218
sS'TEXTAREA'
p219
S"<class 'gluon.html.TEXTAREA'>"
p220
sS'ASK_WHAT_MAKE_HAPPY'
p221
S"'ask_what_make_happy'"
p222
sS'MENU'
p223
S"<class 'gluon.html.MENU'>"
p224
sS'user_factory'
p225
S"<class 'applications.welcome.modules.base_handler.user_factory'>"
p226
sS'like_smth_handler'
p227
S"<class 'applications.welcome.modules.topic_handler.like_smth_handler'>"
p228
sg107
S"<Storage {'user_act': [u'running'], 'topic_list'...tance_info', 'doing_smth'], 'class': 'running'}}>"
p229
sS'IS_IMAGE'
p230
S"<class 'gluon.validators.IS_IMAGE'>"
p231
sS'human_obj'
p232
S"<class 'applications.welcome.modules.obj_definition.human_obj'>"
p233
sS'ask_hobby_handler'
p234
S"<class 'applications.welcome.modules.topic_handler.ask_hobby_handler'>"
p235
sS'waiting_act'
p236
S"<class 'applications.welcome.modules.obj_definition.waiting_act'>"
p237
sS'EM'
p238
S"<class 'gluon.html.EM'>"
p239
sS'CODE'
p240
S"<class 'gluon.html.CODE'>"
p241
sS'HTTP'
p242
S"<class 'gluon.http.HTTP'>"
p243
sS'handle_user_saying_json'
p244
S'<function handle_user_saying_json>'
p245
sS'act_generator'
p246
S"{'working_act': <class 'applications.welcome.modules.obj_definition.working_act'>}"
p247
sS'ASK_DISTANCE'
p248
S"'ask_distance'"
p249
sS'HEAD'
p250
S"<class 'gluon.html.HEAD'>"
p251
sS'LABEL'
p252
S"<class 'gluon.html.LABEL'>"
p253
sS'OPTGROUP'
p254
S"<class 'gluon.html.OPTGROUP'>"
p255
sS'CLEANUP'
p256
S"<class 'gluon.validators.CLEANUP'>"
p257
sS'act_base'
p258
S"<class 'applications.welcome.modules.obj_definition.act_base'>"
p259
sS'plugins'
p260
S'<gluon.tools.PluginManager object>'
p261
sS'MOTIVATION_INFO'
p262
S"'motivation_info'"
p263
sS'job_obj'
p264
S"<class 'applications.welcome.modules.obj_definition.job_obj'>"
p265
sS'ACTIVITY_INFO'
p266
S"'activity_info'"
p267
sS'SELECT'
p268
S"<class 'gluon.html.SELECT'>"
p269
sS'index'
p270
S'<function index>'
p271
sS'use_janrain'
p272
S'<function use_janrain>'
p273
sS'STRONG'
p274
S"<class 'gluon.html.STRONG'>"
p275
sS'ASK_WHAT_TO_DO'
p276
S"'ask_what_to_do'"
p277
sS'prettydate'
p278
S'<function prettydate>'
p279
sS'ASK_HOW_TO_DO'
p280
S"'ask_how_to_do'"
p281
sS'place_obj'
p282
S"<class 'applications.welcome.modules.obj_definition.place_obj'>"
p283
sS'working_act'
p284
S"<class 'applications.welcome.modules.obj_definition.working_act'>"
p285
sS'Crud'
p286
S"<class 'gluon.tools.Crud'>"
p287
sS'Auth'
p288
S"<class 'gluon.tools.Auth'>"
p289
sS'DEVELOPMENT_MENU'
p290
g216
sS'current'
p291
S'<thread._local object>'
p292
sS'IS_EQUAL_TO'
p293
S"<class 'gluon.validators.IS_EQUAL_TO'>"
p294
sS'ask_distance_handler'
p295
S"<class 'applications.welcome.modules.topic_handler.ask_distance_handler'>"
p296
sS'HTML'
p297
S"<class 'gluon.html.HTML'>"
p298
sS'LIKE_SMTH'
p299
S"'like_smth'"
p300
sS'READING_ACT'
p301
S"'reading_act'"
p302
sS'SQLFORM'
p303
S"<class 'gluon.sqlhtml.SQLFORM'>"
p304
sS'TO_GO_SOMEWHERE'
p305
S"'go_to_some_where'"
p306
sS'SAY_THANK'
p307
S"'thank_you'"
p308
sS'INTRODUCE_MYSELF'
p309
S"'introduce_myself'"
p310
sS'LOAD'
p311
S'<function LOAD>'
p312
sS'PRE'
p313
S"<class 'gluon.html.PRE'>"
p314
sS'FIELDSET'
p315
S"<class 'gluon.html.FIELDSET'>"
p316
sS'__builtins__'
p317
S"{'ArithmeticError': <type 'exceptions.ArithmeticError'>, 'AssertionError': <type 'exceptions.AssertionError'>, 'AttributeError': <type 'exceptions.AttributeError'>, 'BaseException': <type 'exceptions.BaseException'>, 'BufferError': <type 'exceptions.BufferError'>, 'BytesWarning': <type 'exceptions.BytesWarning'>, 'DeprecationWarning': <type 'exceptions.DeprecationWarning'>, 'EOFError': <type 'exceptions.EOFError'>, 'Ellipsis': Ellipsis, 'EnvironmentError': <type 'exceptions.EnvironmentError'>, ...}"
p318
sS'user_obj'
p319
S"<class 'applications.welcome.modules.obj_definition.user_obj'>"
p320
sS'STUDYING_ACT'
p321
S"'studying_act'"
p322
sS'ask_how_to_do_handler'
p323
S"<class 'applications.welcome.modules.topic_handler.ask_how_to_do_handler'>"
p324
sS'embed64'
p325
S'<function embed64>'
p326
sS'STOP_CONVERSATION'
p327
S"'stop_conversation'"
p328
sS'IS_LIST_OF'
p329
S"<class 'gluon.validators.IS_LIST_OF'>"
p330
sS'base_intent_handler'
p331
S"<class 'applications.welcome.modules.base_handler.base_intent_handler'>"
p332
sS'INPUT'
p333
S"<class 'gluon.html.INPUT'>"
p334
sS'health_obj'
p335
S"<class 'applications.welcome.modules.obj_definition.health_obj'>"
p336
sS'_'
S'<function _>'
p337
sS'running_act'
p338
S"<class 'applications.welcome.modules.obj_definition.running_act'>"
p339
sS'DISTANCE'
p340
S"'distance'"
p341
sS'logging'
p342
S"<module 'logging' from '/System/Library/Framewor...Versions/2.7/lib/python2.7/logging/__init__.pyc'>"
p343
sS'H2'
p344
S"<class 'gluon.html.H2'>"
p345
sS'H3'
p346
S"<class 'gluon.html.H3'>"
p347
sS'BUTTON'
p348
S"<class 'gluon.html.BUTTON'>"
p349
sS'WORKING_ACT'
p350
S"'working_act'"
p351
sS'H6'
p352
S"<class 'gluon.html.H6'>"
p353
sS'data_format'
p354
S"<class 'applications.welcome.modules.utility.data_format'>"
p355
sS'H4'
p356
S"<class 'gluon.html.H4'>"
p357
sS'H5'
p358
S"<class 'gluon.html.H5'>"
p359
sS'receive_offer_help_handler'
p360
S"<class 'applications.welcome.modules.topic_handler.receive_offer_help_handler'>"
p361
sS'IS_UPPER'
p362
S"<class 'gluon.validators.IS_UPPER'>"
p363
sS'IS_LIST_OF_EMAILS'
p364
S"<class 'gluon.validators.IS_LIST_OF_EMAILS'>"
p365
sS'xmlescape'
p366
S'<function xmlescape>'
p367
sS'IS_TIME'
p368
S"<class 'gluon.validators.IS_TIME'>"
p369
sS'TIME_INFO'
p370
S"'time_info'"
p371
sS'DURATION_INFO'
p372
S"'duration_info'"
p373
sS'OPTION'
p374
S"<class 'gluon.html.OPTION'>"
p375
sS'DONT_NO'
p376
S"'say_dont_no'"
p377
sS'TITLE'
p378
S"<class 'gluon.html.TITLE'>"
p379
sS'CRYPT'
p380
S"<class 'gluon.validators.CRYPT'>"
p381
sS'IS_EMPTY_OR'
p382
S"<class 'gluon.validators.IS_EMPTY_OR'>"
p383
sS'MARKMIN'
p384
S"<class 'gluon.html.MARKMIN'>"
p385
sS'ask_contact_info_handler'
p386
S"<class 'applications.welcome.modules.topic_handler.ask_contact_info_handler'>"
p387
sS'ASK_TIME'
p388
S"'ask_time'"
p389
sS'ASK_WHY_LIKE'
p390
S"'ask_why_like'"
p391
sS'go_to_place'
p392
S"<class 'applications.welcome.modules.topic_handler.go_to_place'>"
p393
sS'__name__'
p394
S"'__restricted__'"
p395
sS'ask_duration_handler'
p396
S"<class 'applications.welcome.modules.topic_handler.ask_duration_handler'>"
p397
sS'COL'
p398
S"<class 'gluon.html.COL'>"
p399
sS'IS_EMAIL'
p400
S"<class 'gluon.validators.IS_EMAIL'>"
p401
sS'ask_what_are_u_doing_handler'
p402
S"<class 'applications.welcome.modules.topic_handler.ask_what_are_u_doing_handler'>"
p403
sS'log'
p404
S'<logging.Logger object>'
p405
sS'service'
p406
S'<gluon.tools.Service object>'
p407
sS'SCRIPT'
p408
S"<class 'gluon.html.SCRIPT'>"
p409
sS'ASK_JOB'
p410
S"'ask_job'"
p411
sS'HR'
p412
S"<class 'gluon.html.HR'>"
p413
sS'ASK_NAME'
p414
S"'ask_name'"
p415
sS'greeting_handler'
p416
S"<class 'applications.welcome.modules.topic_handler.greeting_handler'>"
p417
sS'TABLE'
p418
S"<class 'gluon.html.TABLE'>"
p419
sS'RUNNING_ACT'
p420
S"'running'"
p421
sS'IS_IPV4'
p422
S"<class 'gluon.validators.IS_IPV4'>"
p423
sS'IS_LENGTH'
p424
S"<class 'gluon.validators.IS_LENGTH'>"
p425
sS'IS_IPV6'
p426
S"<class 'gluon.validators.IS_IPV6'>"
p427
sS'XML'
p428
S"<class 'gluon.html.XML'>"
p429
sS'ANSWER_FLAG'
p430
S"'asnwer'"
p431
sS'OFFER_HELP'
p432
S"'offer_help'"
p433
sS'IS_DATETIME'
p434
S"<class 'gluon.validators.IS_DATETIME'>"
p435
sS'IMG'
p436
S"<class 'gluon.html.IMG'>"
p437
sS'CONTACT_TYPE'
p438
S"'contact_type'"
p439
sS'SQLTABLE'
p440
S"<class 'gluon.sqlhtml.SQLTABLE'>"
p441
sS'bus'
p442
S"<class 'applications.welcome.modules.obj_definition.bus'>"
p443
sS'IS_MATCH'
p444
S"<class 'gluon.validators.IS_MATCH'>"
p445
sS'IS_ALPHANUMERIC'
p446
S"<class 'gluon.validators.IS_ALPHANUMERIC'>"
p447
sS'hobby'
p448
S"<class 'applications.welcome.modules.obj_definition.hobby'>"
p449
sS'ASK_WHERE_ARE_U_FROM'
p450
S"'ask_where_are_u_from'"
p451
sS'ai_json'
p452
S"<class 'applications.welcome.modules.utility.ai_json'>"
p453
sS'CENTER'
p454
S"<class 'gluon.html.CENTER'>"
p455
sS'IS_JSON'
p456
S"<class 'gluon.validators.IS_JSON'>"
p457
sS'IS_IPADDRESS'
p458
S"<class 'gluon.validators.IS_IPADDRESS'>"
p459
sS'GREETING'
p460
S"'greeting'"
p461
sS'ASK_AGE'
p462
S"'ask_age'"
p463
sS'BEAUTIFY'
p464
S"<class 'gluon.html.BEAUTIFY'>"
p465
sS'META'
p466
S"<class 'gluon.html.META'>"
p467
sS'introduce_myself_handler'
p468
S"<class 'applications.welcome.modules.topic_handler.introduce_myself_handler'>"
p469
sS'ask_advice'
p470
S"<class 'applications.welcome.modules.topic_handler.ask_advice'>"
p471
sS'H1'
p472
S"<class 'gluon.html.H1'>"
p473
sS'IS_DATE'
p474
S"<class 'gluon.validators.IS_DATE'>"
p475
sS'EMOTIONAL_EXPRESSION'
p476
S"'emotional_expression'"
p477
sS'NAME_INFO'
p478
S"'contact'"
p479
sS'IS_NOT_EMPTY'
p480
S"<class 'gluon.validators.IS_NOT_EMPTY'>"
p481
sS'IS_FLOAT_IN_RANGE'
p482
S"<class 'gluon.validators.IS_FLOAT_IN_RANGE'>"
p483
sS'DISTANCE_INFO'
p484
S"'distance_info'"
p485
sS'TBODY'
p486
S"<class 'gluon.html.TBODY'>"
p487
sS'CAT'
p488
S"<class 'gluon.html.CAT'>"
p489
sS'traveling_act'
p490
S"<class 'applications.welcome.modules.obj_definition.traveling_act'>"
p491
sS'Field'
p492
S"<class 'gluon.dal.Field'>"
p493
sS'B'
S"<class 'gluon.html.B'>"
p494
sS'memory_handler'
p495
S"<class 'applications.welcome.modules.base_handler.memory_handler'>"
p496
sS'DIV'
p497
S"<class 'gluon.html.DIV'>"
p498
sS'LEGEND'
p499
S"<class 'gluon.html.LEGEND'>"
p500
sS'ask_why_like_handler'
p501
S"<class 'applications.welcome.modules.topic_handler.ask_why_like_handler'>"
p502
sS'DAL'
p503
S"<class 'gluon.dal.DAL'>"
p504
sS'TT'
p505
S"<class 'gluon.html.TT'>"
p506
sS'TR'
p507
S"<class 'gluon.html.TR'>"
p508
sS'__package__'
p509
S'None'
p510
sS'URL'
p511
S'<function URL>'
p512
sS'IFRAME'
p513
S"<class 'gluon.html.IFRAME'>"
p514
sS'test_STT'
p515
S'<function test_STT>'
p516
sS'PluginManager'
p517
S"<class 'gluon.tools.PluginManager'>"
p518
sS'IS_URL'
p519
S"<class 'gluon.validators.IS_URL'>"
p520
sS'fun_obj'
p521
S"<class 'applications.welcome.modules.obj_definition.fun_obj'>"
p522
sS'A'
S"<class 'gluon.html.A'>"
p523
sS'ask_opinion_about_sth'
p524
S"<class 'applications.welcome.modules.topic_handler.ask_opinion_about_sth'>"
p525
sS'STYLE'
p526
S"<class 'gluon.html.STYLE'>"
p527
sS'talk_about_people'
p528
S"<class 'applications.welcome.modules.topic_handler.talk_about_people'>"
p529
sS'IS_DATETIME_IN_RANGE'
p530
S"<class 'gluon.validators.IS_DATETIME_IN_RANGE'>"
p531
sS'IS_UPLOAD_FILENAME'
p532
S"<class 'gluon.validators.IS_UPLOAD_FILENAME'>"
p533
sS'FORM'
p534
S"<class 'gluon.html.FORM'>"
p535
sS'NICE_TO_MEET_YOU'
p536
S"'nice_to_meet_you'"
p537
sS'I'
S"<class 'gluon.html.I'>"
p538
sS'crud'
p539
S'<gluon.tools.Crud object>'
p540
sS'ASK_HOBBY'
p541
S"'ask_hobby'"
p542
sS'IS_NOT_IN_DB'
p543
S"<class 'gluon.validators.IS_NOT_IN_DB'>"
p544
sS'user'
p545
S'<function user>'
p546
sS'topic_intent_dic'
p547
S"{'hobby': {'class': <class 'applications.welcome.modules.obj_definition.hobby'>, 'intent': ['ask_hobby', 'like_smth']}, 'running': {'class': <class 'applications.welcome.modules.obj_definition.running_act'>, 'intent': ['ask_duration_of_doing_smth', 'ask_distance', 'ask_why_like', 'ask_how_to_do']}}"
p548
sg113
S"<Storage {'body': <cStringIO.StringO object at 0...> at 0x10dfbba28>, 'view': 'default/index.html'}>"
p549
sS'THEAD'
p550
S"<class 'gluon.html.THEAD'>"
p551
sS'ANY_OF'
p552
S"<class 'gluon.validators.ANY_OF'>"
p553
sS'time_info_handler'
p554
S"<class 'applications.welcome.modules.topic_handler.time_info_handler'>"
p555
sS'COLGROUP'
p556
S"<class 'gluon.html.COLGROUP'>"
p557
sg56
S"<Storage {'_vars': None, 'function': 'index', 'c...c/Documents/learnEnglish/applications/welcome/'}>"
p558
sS'IS_EXPR'
p559
S"<class 'gluon.validators.IS_EXPR'>"
p560
sS'ASK_CONTACT_INFO'
p561
S"'ask_contact_info'"
p562
sS'IS_IN_SET'
p563
S"<class 'gluon.validators.IS_IN_SET'>"
p564
sS'talk'
p565
S'<function talk>'
p566
sS'reading_act'
p567
S"<class 'applications.welcome.modules.obj_definition.reading_act'>"
p568
sS'LEVEL_OF_EXPRESSION'
p569
S"'level_of_expression'"
p570
sS'IS_DECIMAL_IN_RANGE'
p571
S"<class 'gluon.validators.IS_DECIMAL_IN_RANGE'>"
p572
sS'COMPLIMENT'
p573
S"'compliment'"
p574
sS'TFOOT'
p575
S"<class 'gluon.html.TFOOT'>"
p576
sssS'traceback'
p577
S'Traceback (most recent call last):\n  File "/Users/mac/Documents/learnEnglish/gluon/restricted.py", line 217, in restricted\n    exec ccode in environment\n  File "/Users/mac/Documents/learnEnglish/applications/welcome/controllers/default.py", line 111, in <module>\n    ASK_WHAT_MAKE_HAPPY: ask_what_make_happy\nNameError: name \'ask_what_make_happy\' is not defined\n'
p578
s.